target datalayout = "e-m:e-p270:32:32-p271:32:32-p272:64:64-i64:64-i128:128-f80:128-n8:16:32:64-S128"
target triple = "x86_64-pc-linux-gnu"

%struct.AlteredTableInfo = type { i32, i8, ptr, ptr, [12 x ptr], ptr, ptr, ptr, i8, i32, i8, i32, i32, i8, i8, ptr, i8, ptr, ptr, ptr, ptr, ptr, ptr, ptr, ptr }

@.str.2 = private unnamed_addr constant [12 x i8] c"tablecmds.c\00", align 1
@.str.302 = private unnamed_addr constant [60 x i8] c"relation %u has multiple indexes marked as replica identity\00", align 1
@__func__.RememberReplicaIdentityForRebuilding = private unnamed_addr constant [37 x i8] c"RememberReplicaIdentityForRebuilding\00", align 1
@.str.303 = private unnamed_addr constant [43 x i8] c"relation %u has multiple clustered indexes\00", align 1
@__func__.RememberClusterOnForRebuilding = private unnamed_addr constant [31 x i8] c"RememberClusterOnForRebuilding\00", align 1

; Function Attrs: nounwind uwtable
define internal void @RememberClusterOnForRebuilding(i32 noundef %0, ptr noundef %1) #0 {
  %3 = alloca i32, align 4
  %4 = alloca ptr, align 8
  store i32 %0, ptr %3, align 4
  store ptr %1, ptr %4, align 8
  %5 = load i32, ptr %3, align 4
  %6 = call zeroext i1 @get_index_isclustered(i32 noundef %5)
  br i1 %6, label %8, label %7

7:                                                ; preds = %2
  br label %31

8:                                                ; preds = %2
  %9 = load ptr, ptr %4, align 8
  %10 = getelementptr inbounds nuw %struct.AlteredTableInfo, ptr %9, i32 0, i32 22
  %11 = load ptr, ptr %10, align 8
  %12 = icmp ne ptr %11, null
  br i1 %12, label %13, label %26

13:                                               ; preds = %8
  br label %14

14:                                               ; preds = %13
  br i1 true, label %15, label %17

15:                                               ; preds = %14
  %16 = call zeroext i1 @errstart_cold(i32 noundef 21, ptr noundef null) #13
  br i1 %16, label %19, label %24

17:                                               ; preds = %14
  %18 = call zeroext i1 @errstart(i32 noundef 21, ptr noundef null)
  br i1 %18, label %19, label %24

19:                                               ; preds = %17, %15
  %20 = load ptr, ptr %4, align 8
  %21 = getelementptr inbounds nuw %struct.AlteredTableInfo, ptr %20, i32 0, i32 0
  %22 = load i32, ptr %21, align 8
  %23 = call i32 (ptr, ...) @errmsg_internal(ptr noundef @.str.303, i32 noundef %22)
  call void @errfinish(ptr noundef @.str.2, i32 noundef 14380, ptr noundef @__func__.RememberClusterOnForRebuilding)
  br label %24

24:                                               ; preds = %19, %17, %15
  unreachable

25:                                               ; No predecessors!
  br label %26

26:                                               ; preds = %25, %8
  %27 = load i32, ptr %3, align 4
  %28 = call ptr @get_rel_name(i32 noundef %27)
  %29 = load ptr, ptr %4, align 8
  %30 = getelementptr inbounds nuw %struct.AlteredTableInfo, ptr %29, i32 0, i32 22
  store ptr %28, ptr %30, align 8
  br label %31

31:                                               ; preds = %26, %7
  ret void
}

; Function Attrs: nounwind uwtable
define internal void @RememberReplicaIdentityForRebuilding(i32 noundef %0, ptr noundef %1) #0 {
  %3 = alloca i32, align 4
  %4 = alloca ptr, align 8
  store i32 %0, ptr %3, align 4
  store ptr %1, ptr %4, align 8
  %5 = load i32, ptr %3, align 4
  %6 = call zeroext i1 @get_index_isreplident(i32 noundef %5)
  br i1 %6, label %8, label %7

7:                                                ; preds = %2
  br label %31

8:                                                ; preds = %2
  %9 = load ptr, ptr %4, align 8
  %10 = getelementptr inbounds nuw %struct.AlteredTableInfo, ptr %9, i32 0, i32 21
  %11 = load ptr, ptr %10, align 8
  %12 = icmp ne ptr %11, null
  br i1 %12, label %13, label %26

13:                                               ; preds = %8
  br label %14

14:                                               ; preds = %13
  br i1 true, label %15, label %17

15:                                               ; preds = %14
  %16 = call zeroext i1 @errstart_cold(i32 noundef 21, ptr noundef null) #13
  br i1 %16, label %19, label %24

17:                                               ; preds = %14
  %18 = call zeroext i1 @errstart(i32 noundef 21, ptr noundef null)
  br i1 %18, label %19, label %24

19:                                               ; preds = %17, %15
  %20 = load ptr, ptr %4, align 8
  %21 = getelementptr inbounds nuw %struct.AlteredTableInfo, ptr %20, i32 0, i32 0
  %22 = load i32, ptr %21, align 8
  %23 = call i32 (ptr, ...) @errmsg_internal(ptr noundef @.str.302, i32 noundef %22)
  call void @errfinish(ptr noundef @.str.2, i32 noundef 14365, ptr noundef @__func__.RememberReplicaIdentityForRebuilding)
  br label %24

24:                                               ; preds = %19, %17, %15
  unreachable

25:                                               ; No predecessors!
  br label %26

26:                                               ; preds = %25, %8
  %27 = load i32, ptr %3, align 4
  %28 = call ptr @get_rel_name(i32 noundef %27)
  %29 = load ptr, ptr %4, align 8
  %30 = getelementptr inbounds nuw %struct.AlteredTableInfo, ptr %29, i32 0, i32 21
  store ptr %28, ptr %30, align 8
  br label %31

31:                                               ; preds = %26, %7
  ret void
}

; Function Attrs: nounwind uwtable
define internal void @RememberConstraintForRebuilding(i32 noundef %0, ptr noundef %1) #0 {
  %3 = alloca i32, align 4
  %4 = alloca ptr, align 8
  %5 = alloca ptr, align 8
  %6 = alloca i32, align 4
  store i32 %0, ptr %3, align 4
  store ptr %1, ptr %4, align 8
  %7 = load ptr, ptr %4, align 8
  %8 = getelementptr inbounds nuw %struct.AlteredTableInfo, ptr %7, i32 0, i32 17
  %9 = load ptr, ptr %8, align 8
  %10 = load i32, ptr %3, align 4
  %11 = call zeroext i1 @list_member_oid(ptr noundef %9, i32 noundef %10)
  br i1 %11, label %60, label %12

12:                                               ; preds = %2
  call void @llvm.lifetime.start.p0(i64 8, ptr %5) #12
  %13 = load i32, ptr %3, align 4
  %14 = call ptr @pg_get_constraintdef_command(i32 noundef %13)
  store ptr %14, ptr %5, align 8
  call void @llvm.lifetime.start.p0(i64 4, ptr %6) #12
  %15 = load i32, ptr %3, align 4
  %16 = call signext i8 @get_constraint_type(i32 noundef %15)
  %17 = sext i8 %16 to i32
  %18 = icmp eq i32 %17, 110
  br i1 %18, label %19, label %34

19:                                               ; preds = %12
  %20 = load i32, ptr %3, align 4
  %21 = load ptr, ptr %4, align 8
  %22 = getelementptr inbounds nuw %struct.AlteredTableInfo, ptr %21, i32 0, i32 17
  %23 = load ptr, ptr %22, align 8
  %24 = call ptr @lcons_oid(i32 noundef %20, ptr noundef %23)
  %25 = load ptr, ptr %4, align 8
  %26 = getelementptr inbounds nuw %struct.AlteredTableInfo, ptr %25, i32 0, i32 17
  store ptr %24, ptr %26, align 8
  %27 = load ptr, ptr %5, align 8
  %28 = load ptr, ptr %4, align 8
  %29 = getelementptr inbounds nuw %struct.AlteredTableInfo, ptr %28, i32 0, i32 18
  %30 = load ptr, ptr %29, align 8
  %31 = call ptr @lcons(ptr noundef %27, ptr noundef %30)
  %32 = load ptr, ptr %4, align 8
  %33 = getelementptr inbounds nuw %struct.AlteredTableInfo, ptr %32, i32 0, i32 18
  store ptr %31, ptr %33, align 8
  br label %49

34:                                               ; preds = %12
  %35 = load ptr, ptr %4, align 8
  %36 = getelementptr inbounds nuw %struct.AlteredTableInfo, ptr %35, i32 0, i32 17
  %37 = load ptr, ptr %36, align 8
  %38 = load i32, ptr %3, align 4
  %39 = call ptr @lappend_oid(ptr noundef %37, i32 noundef %38)
  %40 = load ptr, ptr %4, align 8
  %41 = getelementptr inbounds nuw %struct.AlteredTableInfo, ptr %40, i32 0, i32 17
  store ptr %39, ptr %41, align 8
  %42 = load ptr, ptr %4, align 8
  %43 = getelementptr inbounds nuw %struct.AlteredTableInfo, ptr %42, i32 0, i32 18
  %44 = load ptr, ptr %43, align 8
  %45 = load ptr, ptr %5, align 8
  %46 = call ptr @lappend(ptr noundef %44, ptr noundef %45)
  %47 = load ptr, ptr %4, align 8
  %48 = getelementptr inbounds nuw %struct.AlteredTableInfo, ptr %47, i32 0, i32 18
  store ptr %46, ptr %48, align 8
  br label %49

49:                                               ; preds = %34, %19
  %50 = load i32, ptr %3, align 4
  %51 = call i32 @get_constraint_index(i32 noundef %50)
  store i32 %51, ptr %6, align 4
  %52 = load i32, ptr %6, align 4
  %53 = icmp ne i32 %52, 0
  br i1 %53, label %54, label %59

54:                                               ; preds = %49
  %55 = load i32, ptr %6, align 4
  %56 = load ptr, ptr %4, align 8
  call void @RememberReplicaIdentityForRebuilding(i32 noundef %55, ptr noundef %56)
  %57 = load i32, ptr %6, align 4
  %58 = load ptr, ptr %4, align 8
  call void @RememberClusterOnForRebuilding(i32 noundef %57, ptr noundef %58)
  br label %59

59:                                               ; preds = %54, %49
  call void @llvm.lifetime.end.p0(i64 4, ptr %6) #12
  call void @llvm.lifetime.end.p0(i64 8, ptr %5) #12
  br label %60

60:                                               ; preds = %59, %2
  ret void
}