; Function Attrs: nounwind uwtable
define internal fastcc void @RememberConstraintForRebuilding(i32 noundef %0, ptr noundef captures(none) %1) unnamed_addr #0 {
  %3 = getelementptr inbounds nuw i8, ptr %1, i64 184
  %4 = load ptr, ptr %3, align 8
  %5 = tail call zeroext i1 @list_member_oid(ptr noundef %4, i32 noundef %0) #15
  br i1 %5, label %RememberClusterOnForRebuilding.exit, label %6

6:                                                ; preds = %2
  %7 = tail call ptr @pg_get_constraintdef_command(i32 noundef %0) #15
  %8 = tail call signext i8 @get_constraint_type(i32 noundef %0) #15
  %9 = icmp eq i8 %8, 110
  %10 = load ptr, ptr %3, align 8
  %11 = getelementptr inbounds nuw i8, ptr %1, i64 192
  br i1 %9, label %12, label %16

12:                                               ; preds = %6
  %13 = tail call ptr @lcons_oid(i32 noundef %0, ptr noundef %10) #15
  store ptr %13, ptr %3, align 8
  %14 = load ptr, ptr %11, align 8
  %15 = tail call ptr @lcons(ptr noundef %7, ptr noundef %14) #15
  br label %20

16:                                               ; preds = %6
  %17 = tail call ptr @lappend_oid(ptr noundef %10, i32 noundef %0) #15
  store ptr %17, ptr %3, align 8
  %18 = load ptr, ptr %11, align 8
  %19 = tail call ptr @lappend(ptr noundef %18, ptr noundef %7) #15
  br label %20

20:                                               ; preds = %16, %12
  %.sink = phi ptr [ %19, %16 ], [ %15, %12 ]
  store ptr %.sink, ptr %11, align 8
  %21 = tail call i32 @get_constraint_index(i32 noundef %0) #15
  %.not = icmp eq i32 %21, 0
  br i1 %.not, label %RememberClusterOnForRebuilding.exit, label %22

22:                                               ; preds = %20
  %23 = tail call zeroext i1 @get_index_isreplident(i32 noundef %21) #15
  br i1 %23, label %24, label %RememberReplicaIdentityForRebuilding.exit

24:                                               ; preds = %22
  %25 = getelementptr inbounds nuw i8, ptr %1, i64 216
  %26 = load ptr, ptr %25, align 8
  %.not.i = icmp eq ptr %26, null
  br i1 %.not.i, label %31, label %27

27:                                               ; preds = %24
  %28 = tail call zeroext i1 @errstart_cold(i32 noundef 21, ptr noundef null) #16
  tail call void @llvm.assume(i1 %28)
  %29 = load i32, ptr %1, align 8
  %30 = tail call i32 (ptr, ...) @errmsg_internal(ptr noundef nonnull @.str.302, i32 noundef %29) #15
  tail call void @errfinish(ptr noundef nonnull @.str.2, i32 noundef 14365, ptr noundef nonnull @__func__.RememberReplicaIdentityForRebuilding) #15
  unreachable

31:                                               ; preds = %24
  %32 = tail call ptr @get_rel_name(i32 noundef %21) #15
  store ptr %32, ptr %25, align 8
  br label %RememberReplicaIdentityForRebuilding.exit

RememberReplicaIdentityForRebuilding.exit:        ; preds = %22, %31
  %33 = tail call zeroext i1 @get_index_isclustered(i32 noundef %21) #15
  br i1 %33, label %34, label %RememberClusterOnForRebuilding.exit

34:                                               ; preds = %RememberReplicaIdentityForRebuilding.exit
  %35 = getelementptr inbounds nuw i8, ptr %1, i64 224
  %36 = load ptr, ptr %35, align 8
  %.not.i21 = icmp eq ptr %36, null
  br i1 %.not.i21, label %41, label %37

37:                                               ; preds = %34
  %38 = tail call zeroext i1 @errstart_cold(i32 noundef 21, ptr noundef null) #16
  tail call void @llvm.assume(i1 %38)
  %39 = load i32, ptr %1, align 8
  %40 = tail call i32 (ptr, ...) @errmsg_internal(ptr noundef nonnull @.str.303, i32 noundef %39) #15
  tail call void @errfinish(ptr noundef nonnull @.str.2, i32 noundef 14380, ptr noundef nonnull @__func__.RememberClusterOnForRebuilding) #15
  unreachable

41:                                               ; preds = %34
  %42 = tail call ptr @get_rel_name(i32 noundef %21) #15
  store ptr %42, ptr %35, align 8
  br label %RememberClusterOnForRebuilding.exit

RememberClusterOnForRebuilding.exit:              ; preds = %41, %RememberReplicaIdentityForRebuilding.exit, %20, %2
  ret void
}